target datalayout = "e-m:e-p270:32:32-p271:32:32-p272:64:64-i64:64-i128:128-f80:128-n8:16:32:64-S128"
target triple = "x86_64-pc-linux-gnu"

@_ZL11initialized = internal global i8 0, align 1
@_ZL26nanos_to_os_counter_factor = internal global double 0.000000e+00, align 8
@_ZL26os_counter_to_nanos_factor = internal global double 0.000000e+00, align 8
@_ZL26nanos_to_ft_counter_factor = internal global double 0.000000e+00, align 8
@_ZL26ft_counter_to_nanos_factor = internal global double 0.000000e+00, align 8
@_ZN7JfrTime11_ft_enabledE = external global i8, align 1

; Function Attrs: mustprogress nounwind uwtable
define linkonce_odr hidden noundef zeroext i1 @_ZN7JfrTime13is_ft_enabledEv() #1 comdat align 2 {
  %1 = load i8, ptr @_ZN7JfrTime11_ft_enabledE, align 1
  %2 = trunc i8 %1 to i1
  ret i1 %2
}

; Function Attrs: mustprogress nounwind uwtable
define hidden void @_ZN16JfrTimeConverter10initializeEv() #1 align 2 {
  %1 = load i8, ptr @_ZL11initialized, align 1
  %2 = trunc i8 %1 to i1
  br i1 %2, label %17, label %3

3:                                                ; preds = %0
  %4 = call noundef i64 @_ZN2os17elapsed_frequencyEv()
  %5 = sitofp i64 %4 to double
  %6 = fdiv double %5, 1.000000e+09
  store double %6, ptr @_ZL26nanos_to_os_counter_factor, align 8
  %7 = load double, ptr @_ZL26nanos_to_os_counter_factor, align 8
  %8 = fdiv double 1.000000e+00, %7
  store double %8, ptr @_ZL26os_counter_to_nanos_factor, align 8
  %9 = call noundef zeroext i1 @_ZN7JfrTime13is_ft_enabledEv()
  br i1 %9, label %10, label %16

10:                                               ; preds = %3
  %11 = call noundef i64 @_ZN7JfrTime9frequencyEv()
  %12 = sitofp i64 %11 to double
  %13 = fdiv double %12, 1.000000e+09
  store double %13, ptr @_ZL26nanos_to_ft_counter_factor, align 8
  %14 = load double, ptr @_ZL26nanos_to_ft_counter_factor, align 8
  %15 = fdiv double 1.000000e+00, %14
  store double %15, ptr @_ZL26ft_counter_to_nanos_factor, align 8
  br label %16

16:                                               ; preds = %10, %3
  store i8 1, ptr @_ZL11initialized, align 1
  br label %17

17:                                               ; preds = %16, %0
  ret void
}

; Function Attrs: mustprogress nounwind uwtable
define hidden noundef double @_ZN16JfrTimeConverter26counter_to_nano_multiplierEb(i1 noundef zeroext %0) #1 align 2 {
  %2 = alloca i8, align 1
  %3 = zext i1 %0 to i8
  store i8 %3, ptr %2, align 1
  %4 = load i8, ptr @_ZL11initialized, align 1
  %5 = trunc i8 %4 to i1
  br i1 %5, label %7, label %6

6:                                                ; preds = %1
  call void @_ZN16JfrTimeConverter10initializeEv()
  br label %7

7:                                                ; preds = %6, %1
  %8 = call noundef zeroext i1 @_ZN7JfrTime13is_ft_enabledEv()
  br i1 %8, label %9, label %14

9:                                                ; preds = %7
  %10 = load i8, ptr %2, align 1
  %11 = trunc i8 %10 to i1
  br i1 %11, label %14, label %12

12:                                               ; preds = %9
  %13 = load double, ptr @_ZL26ft_counter_to_nanos_factor, align 8
  br label %16

14:                                               ; preds = %9, %7
  %15 = load double, ptr @_ZL26os_counter_to_nanos_factor, align 8
  br label %16

16:                                               ; preds = %14, %12
  %17 = phi double [ %13, %12 ], [ %15, %14 ]
  ret double %17
}

; Function Attrs: mustprogress nounwind uwtable
define hidden noundef double @_ZN16JfrTimeConverter25counter_to_nanos_internalElb(i64 noundef %0, i1 noundef zeroext %1) #1 align 2 {
  %3 = alloca i64, align 8
  %4 = alloca i8, align 1
  store i64 %0, ptr %3, align 8
  %5 = zext i1 %1 to i8
  store i8 %5, ptr %4, align 1
  %6 = load i64, ptr %3, align 8
  %7 = sitofp i64 %6 to double
  %8 = load i8, ptr %4, align 1
  %9 = trunc i8 %8 to i1
  %10 = call noundef double @_ZN16JfrTimeConverter26counter_to_nano_multiplierEb(i1 noundef zeroext %9)
  %11 = fmul double %7, %10
  ret double %11
}

; Function Attrs: mustprogress nounwind uwtable
define hidden noundef double @_ZN16JfrTimeConverter26counter_to_millis_internalElb(i64 noundef %0, i1 noundef zeroext %1) #1 align 2 {
  %3 = alloca i64, align 8
  %4 = alloca i8, align 1
  store i64 %0, ptr %3, align 8
  %5 = zext i1 %1 to i8
  store i8 %5, ptr %4, align 1
  %6 = load i64, ptr %3, align 8
  %7 = load i8, ptr %4, align 1
  %8 = trunc i8 %7 to i1
  %9 = call noundef double @_ZN16JfrTimeConverter25counter_to_nanos_internalElb(i64 noundef %6, i1 noundef zeroext %8)
  %10 = fdiv double %9, 1.000000e+06
  ret double %10
}

; Function Attrs: mustprogress nounwind uwtable
define hidden noundef i64 @_ZN16JfrTimeConverter17counter_to_millisElb(i64 noundef %0, i1 noundef zeroext %1) #1 align 2 {
  %3 = alloca i64, align 8
  %4 = alloca i8, align 1
  store i64 %0, ptr %3, align 8
  %5 = zext i1 %1 to i8
  store i8 %5, ptr %4, align 1
  %6 = load i64, ptr %3, align 8
  %7 = load i8, ptr %4, align 1
  %8 = trunc i8 %7 to i1
  %9 = call noundef double @_ZN16JfrTimeConverter26counter_to_millis_internalElb(i64 noundef %6, i1 noundef zeroext %8)
  %10 = fptosi double %9 to i64
  ret i64 %10
}