; Function Attrs: mustprogress nounwind uwtable
define hidden noundef i64 @_ZN16JfrTimeConverter17counter_to_millisElb(i64 noundef %0, i1 noundef zeroext %1) local_unnamed_addr #0 align 2 {
  %.b1.i.i.i = load i1, ptr @_ZL11initialized, align 1
  br i1 %.b1.i.i.i, label %_ZN16JfrTimeConverter26counter_to_millis_internalElb.exit, label %3

3:                                                ; preds = %2
  %4 = tail call noundef i64 @_ZN2os17elapsed_frequencyEv() #2
  %5 = sitofp i64 %4 to double
  %6 = fdiv double %5, 1.000000e+09
  store double %6, ptr @_ZL26nanos_to_os_counter_factor, align 8
  %7 = fdiv double 1.000000e+00, %6
  store double %7, ptr @_ZL26os_counter_to_nanos_factor, align 8
  %8 = load i8, ptr @_ZN7JfrTime11_ft_enabledE, align 1
  %9 = trunc i8 %8 to i1
  br i1 %9, label %10, label %_ZN16JfrTimeConverter10initializeEv.exit.i.i.i

10:                                               ; preds = %3
  %11 = tail call noundef i64 @_ZN7JfrTime9frequencyEv() #2
  %12 = sitofp i64 %11 to double
  %13 = fdiv double %12, 1.000000e+09
  store double %13, ptr @_ZL26nanos_to_ft_counter_factor, align 8
  %14 = fdiv double 1.000000e+00, %13
  store double %14, ptr @_ZL26ft_counter_to_nanos_factor, align 8
  br label %_ZN16JfrTimeConverter10initializeEv.exit.i.i.i

_ZN16JfrTimeConverter10initializeEv.exit.i.i.i:   ; preds = %10, %3
  store i1 true, ptr @_ZL11initialized, align 1
  br label %_ZN16JfrTimeConverter26counter_to_millis_internalElb.exit

_ZN16JfrTimeConverter26counter_to_millis_internalElb.exit: ; preds = %2, %_ZN16JfrTimeConverter10initializeEv.exit.i.i.i
  %15 = sitofp i64 %0 to double
  %16 = load i8, ptr @_ZN7JfrTime11_ft_enabledE, align 1
  %17 = trunc i8 %16 to i1
  %.not.i.i.i = xor i1 %17, true
  %brmerge.i.i.i = or i1 %.not.i.i.i, %1
  %_ZL26os_counter_to_nanos_factor.val.i.i.i = load double, ptr @_ZL26os_counter_to_nanos_factor, align 8
  %_ZL26ft_counter_to_nanos_factor.val.i.i.i = load double, ptr @_ZL26ft_counter_to_nanos_factor, align 8
  %18 = select i1 %brmerge.i.i.i, double %_ZL26os_counter_to_nanos_factor.val.i.i.i, double %_ZL26ft_counter_to_nanos_factor.val.i.i.i
  %19 = fmul double %18, %15
  %20 = fdiv double %19, 1.000000e+06
  %21 = fptosi double %20 to i64
  ret i64 %21
}